target datalayout = "e-m:e-p270:32:32-p271:32:32-p272:64:64-i64:64-i128:128-f80:128-n8:16:32:64-S128"
target triple = "x86_64-pc-linux-gnu"

%"class.cv::(anonymous namespace)::ufixedpoint16" = type { i16 }
%"class.cv::(anonymous namespace)::ufixedpoint32" = type { i32 }

; Function Attrs: inlinehint mustprogress nounwind uwtable
define linkonce_odr noundef nonnull align 4 dereferenceable(4) ptr @_ZSt3minIjERKT_S2_S2_(ptr noundef nonnull align 4 dereferenceable(4) %0, ptr noundef nonnull align 4 dereferenceable(4) %1) #9 comdat {
  %3 = alloca ptr, align 8
  %4 = alloca ptr, align 8
  %5 = alloca ptr, align 8
  store ptr %0, ptr %4, align 8, !tbaa !22
  store ptr %1, ptr %5, align 8, !tbaa !22
  %6 = load ptr, ptr %5, align 8, !tbaa !22
  %7 = load i32, ptr %6, align 4, !tbaa !10
  %8 = load ptr, ptr %4, align 8, !tbaa !22
  %9 = load i32, ptr %8, align 4, !tbaa !10
  %10 = icmp ult i32 %7, %9
  br i1 %10, label %11, label %13

11:                                               ; preds = %2
  %12 = load ptr, ptr %5, align 8, !tbaa !22
  store ptr %12, ptr %3, align 8
  br label %15

13:                                               ; preds = %2
  %14 = load ptr, ptr %4, align 8, !tbaa !22
  store ptr %14, ptr %3, align 8
  br label %15

15:                                               ; preds = %13, %11
  %16 = load ptr, ptr %3, align 8
  ret ptr %16
}

; Function Attrs: inlinehint mustprogress nounwind uwtable
define internal noundef zeroext i8 @_ZN2cvL13saturate_castIhEET_j(i32 noundef %0) #9 {
  %2 = alloca i32, align 4
  %3 = alloca i32, align 4
  store i32 %0, ptr %2, align 4, !tbaa !10
  call void @llvm.lifetime.start.p0(i64 4, ptr %3) #3
  store i32 255, ptr %3, align 4, !tbaa !10
  %4 = call noundef nonnull align 4 dereferenceable(4) ptr @_ZSt3minIjERKT_S2_S2_(ptr noundef nonnull align 4 dereferenceable(4) %2, ptr noundef nonnull align 4 dereferenceable(4) %3)
  %5 = load i32, ptr %4, align 4, !tbaa !10
  %6 = trunc i32 %5 to i8
  call void @llvm.lifetime.end.p0(i64 4, ptr %3) #3
  ret i8 %6
}

; Function Attrs: alwaysinline mustprogress nounwind uwtable
define internal noundef i32 @_ZN2cv12_GLOBAL__N_113ufixedpoint3210fixedroundERKj(ptr noundef nonnull align 4 dereferenceable(4) %0) #17 align 2 {
  %2 = alloca ptr, align 8
  store ptr %0, ptr %2, align 8, !tbaa !22
  %3 = load ptr, ptr %2, align 8, !tbaa !22
  %4 = load i32, ptr %3, align 4, !tbaa !10
  %5 = add i32 %4, 32768
  ret i32 %5
}

; Function Attrs: alwaysinline mustprogress uwtable
define internal noundef zeroext i8 @_ZNK2cv12_GLOBAL__N_113ufixedpoint3213saturate_castIhEET_v(ptr noundef nonnull align 4 dereferenceable(4) %0) #19 align 2 {
  %2 = alloca ptr, align 8
  store ptr %0, ptr %2, align 8, !tbaa !343
  %3 = load ptr, ptr %2, align 8
  %4 = getelementptr inbounds nuw %"class.cv::(anonymous namespace)::ufixedpoint32", ptr %3, i32 0, i32 0
  %5 = call noundef i32 @_ZN2cv12_GLOBAL__N_113ufixedpoint3210fixedroundERKj(ptr noundef nonnull align 4 dereferenceable(4) %4)
  %6 = lshr i32 %5, 16
  %7 = call noundef zeroext i8 @_ZN2cvL13saturate_castIhEET_j(i32 noundef %6)
  ret i8 %7
}

; Function Attrs: mustprogress nounwind uwtable
define internal void @_ZN2cv12_GLOBAL__N_113ufixedpoint32C2Ej(ptr noundef nonnull align 4 dereferenceable(4) %0, i32 noundef %1) unnamed_addr #7 align 2 {
  %3 = alloca ptr, align 8
  %4 = alloca i32, align 4
  store ptr %0, ptr %3, align 8, !tbaa !343
  store i32 %1, ptr %4, align 4, !tbaa !10
  %5 = load ptr, ptr %3, align 8
  %6 = getelementptr inbounds nuw %"class.cv::(anonymous namespace)::ufixedpoint32", ptr %5, i32 0, i32 0
  %7 = load i32, ptr %4, align 4, !tbaa !10
  store i32 %7, ptr %6, align 4, !tbaa !344
  ret void
}

; Function Attrs: alwaysinline mustprogress uwtable
define internal noundef zeroext i8 @_ZNK2cv12_GLOBAL__N_113ufixedpoint32cvhEv(ptr noundef nonnull align 4 dereferenceable(4) %0) #19 align 2 {
  %2 = alloca ptr, align 8
  store ptr %0, ptr %2, align 8, !tbaa !343
  %3 = load ptr, ptr %2, align 8
  %4 = call noundef zeroext i8 @_ZNK2cv12_GLOBAL__N_113ufixedpoint3213saturate_castIhEET_v(ptr noundef nonnull align 4 dereferenceable(4) %3)
  ret i8 %4
}

; Function Attrs: alwaysinline mustprogress nounwind uwtable
define internal noundef nonnull align 4 dereferenceable(4) ptr @_ZN2cv12_GLOBAL__N_113ufixedpoint32aSERKS1_(ptr noundef nonnull align 4 dereferenceable(4) %0, ptr noundef nonnull align 4 dereferenceable(4) %1) #17 align 2 {
  %3 = alloca ptr, align 8
  %4 = alloca ptr, align 8
  store ptr %0, ptr %3, align 8, !tbaa !343
  store ptr %1, ptr %4, align 8, !tbaa !343
  %5 = load ptr, ptr %3, align 8
  %6 = load ptr, ptr %4, align 8, !tbaa !343
  %7 = getelementptr inbounds nuw %"class.cv::(anonymous namespace)::ufixedpoint32", ptr %6, i32 0, i32 0
  %8 = load i32, ptr %7, align 4, !tbaa !344
  %9 = getelementptr inbounds nuw %"class.cv::(anonymous namespace)::ufixedpoint32", ptr %5, i32 0, i32 0
  store i32 %8, ptr %9, align 4, !tbaa !344
  ret ptr %5
}

; Function Attrs: alwaysinline mustprogress uwtable
define internal void @_ZNK2cv12_GLOBAL__N_113ufixedpoint32plERKS1_(ptr dead_on_unwind noalias writable sret(%"class.cv::(anonymous namespace)::ufixedpoint32") align 4 %0, ptr noundef nonnull align 4 dereferenceable(4) %1, ptr noundef nonnull align 4 dereferenceable(4) %2) #19 align 2 {
  %4 = alloca ptr, align 8
  %5 = alloca ptr, align 8
  %6 = alloca ptr, align 8
  %7 = alloca i32, align 4
  store ptr %0, ptr %4, align 8
  store ptr %1, ptr %5, align 8, !tbaa !343
  store ptr %2, ptr %6, align 8, !tbaa !343
  %8 = load ptr, ptr %5, align 8
  call void @llvm.lifetime.start.p0(i64 4, ptr %7) #3
  %9 = getelementptr inbounds nuw %"class.cv::(anonymous namespace)::ufixedpoint32", ptr %8, i32 0, i32 0
  %10 = load i32, ptr %9, align 4, !tbaa !344
  %11 = load ptr, ptr %6, align 8, !tbaa !343
  %12 = getelementptr inbounds nuw %"class.cv::(anonymous namespace)::ufixedpoint32", ptr %11, i32 0, i32 0
  %13 = load i32, ptr %12, align 4, !tbaa !344
  %14 = add i32 %10, %13
  store i32 %14, ptr %7, align 4, !tbaa !10
  %15 = getelementptr inbounds nuw %"class.cv::(anonymous namespace)::ufixedpoint32", ptr %8, i32 0, i32 0
  %16 = load i32, ptr %15, align 4, !tbaa !344
  %17 = load i32, ptr %7, align 4, !tbaa !10
  %18 = icmp ugt i32 %16, %17
  br i1 %18, label %19, label %20

19:                                               ; preds = %3
  br label %22

20:                                               ; preds = %3
  %21 = load i32, ptr %7, align 4, !tbaa !10
  br label %22

22:                                               ; preds = %20, %19
  %23 = phi i32 [ -1, %19 ], [ %21, %20 ]
  call void @_ZN2cv12_GLOBAL__N_113ufixedpoint32C2Ej(ptr noundef nonnull align 4 dereferenceable(4) %0, i32 noundef %23)
  call void @llvm.lifetime.end.p0(i64 4, ptr %7) #3
  ret void
}

; Function Attrs: alwaysinline mustprogress uwtable
define internal void @_ZNK2cv12_GLOBAL__N_113ufixedpoint16mlERKS1_(ptr dead_on_unwind noalias writable sret(%"class.cv::(anonymous namespace)::ufixedpoint32") align 4 %0, ptr noundef nonnull align 2 dereferenceable(2) %1, ptr noundef nonnull align 2 dereferenceable(2) %2) #19 align 2 {
  %4 = alloca ptr, align 8
  %5 = alloca ptr, align 8
  %6 = alloca ptr, align 8
  store ptr %0, ptr %4, align 8
  store ptr %1, ptr %5, align 8, !tbaa !204
  store ptr %2, ptr %6, align 8, !tbaa !204
  %7 = load ptr, ptr %5, align 8
  %8 = getelementptr inbounds nuw %"class.cv::(anonymous namespace)::ufixedpoint16", ptr %7, i32 0, i32 0
  %9 = load i16, ptr %8, align 2, !tbaa !230
  %10 = zext i16 %9 to i32
  %11 = load ptr, ptr %6, align 8, !tbaa !204
  %12 = getelementptr inbounds nuw %"class.cv::(anonymous namespace)::ufixedpoint16", ptr %11, i32 0, i32 0
  %13 = load i16, ptr %12, align 2, !tbaa !230
  %14 = zext i16 %13 to i32
  %15 = mul i32 %10, %14
  call void @_ZN2cv12_GLOBAL__N_113ufixedpoint32C2Ej(ptr noundef nonnull align 4 dereferenceable(4) %0, i32 noundef %15)
  ret void
}

; Function Attrs: mustprogress uwtable
define internal void @_ZN2cv12cpu_baseline12_GLOBAL__N_120vlineSmoothONa_yzy_aIhNS_12_GLOBAL__N_113ufixedpoint16EEEvPKPKT0_S7_iPT_i(ptr noundef %0, ptr noundef %1, i32 noundef %2, ptr noundef %3, i32 noundef %4) #4 {
  %6 = alloca ptr, align 8
  %7 = alloca ptr, align 8
  %8 = alloca i32, align 4
  %9 = alloca ptr, align 8
  %10 = alloca i32, align 4
  %11 = alloca i32, align 4
  %12 = alloca %"class.cv::(anonymous namespace)::ufixedpoint32", align 4
  %13 = alloca i32, align 4
  %14 = alloca %"class.cv::(anonymous namespace)::ufixedpoint32", align 4
  %15 = alloca %"class.cv::(anonymous namespace)::ufixedpoint32", align 4
  store ptr %0, ptr %6, align 8, !tbaa !311
  store ptr %1, ptr %7, align 8, !tbaa !204
  store i32 %2, ptr %8, align 4, !tbaa !10
  store ptr %3, ptr %9, align 8, !tbaa !82
  store i32 %4, ptr %10, align 4, !tbaa !10
  call void @llvm.lifetime.start.p0(i64 4, ptr %11) #3
  store i32 0, ptr %11, align 4, !tbaa !10
  br label %16

16:                                               ; preds = %57, %5
  %17 = load i32, ptr %11, align 4, !tbaa !10
  %18 = load i32, ptr %10, align 4, !tbaa !10
  %19 = icmp slt i32 %17, %18
  br i1 %19, label %20, label %60

20:                                               ; preds = %16
  call void @llvm.lifetime.start.p0(i64 4, ptr %12) #3
  %21 = load ptr, ptr %7, align 8, !tbaa !204
  %22 = getelementptr inbounds %"class.cv::(anonymous namespace)::ufixedpoint16", ptr %21, i64 0
  %23 = load ptr, ptr %6, align 8, !tbaa !311
  %24 = getelementptr inbounds ptr, ptr %23, i64 0
  %25 = load ptr, ptr %24, align 8, !tbaa !204
  %26 = load i32, ptr %11, align 4, !tbaa !10
  %27 = sext i32 %26 to i64
  %28 = getelementptr inbounds %"class.cv::(anonymous namespace)::ufixedpoint16", ptr %25, i64 %27
  call void @_ZNK2cv12_GLOBAL__N_113ufixedpoint16mlERKS1_(ptr dead_on_unwind writable sret(%"class.cv::(anonymous namespace)::ufixedpoint32") align 4 %12, ptr noundef nonnull align 2 dereferenceable(2) %22, ptr noundef nonnull align 2 dereferenceable(2) %28)
  call void @llvm.lifetime.start.p0(i64 4, ptr %13) #3
  store i32 1, ptr %13, align 4, !tbaa !10
  br label %29

29:                                               ; preds = %48, %20
  %30 = load i32, ptr %13, align 4, !tbaa !10
  %31 = load i32, ptr %8, align 4, !tbaa !10
  %32 = icmp slt i32 %30, %31
  br i1 %32, label %34, label %33

33:                                               ; preds = %29
  call void @llvm.lifetime.end.p0(i64 4, ptr %13) #3
  br label %51

34:                                               ; preds = %29
  call void @llvm.lifetime.start.p0(i64 4, ptr %14) #3
  call void @llvm.lifetime.start.p0(i64 4, ptr %15) #3
  %35 = load ptr, ptr %7, align 8, !tbaa !204
  %36 = load i32, ptr %13, align 4, !tbaa !10
  %37 = sext i32 %36 to i64
  %38 = getelementptr inbounds %"class.cv::(anonymous namespace)::ufixedpoint16", ptr %35, i64 %37
  %39 = load ptr, ptr %6, align 8, !tbaa !311
  %40 = load i32, ptr %13, align 4, !tbaa !10
  %41 = sext i32 %40 to i64
  %42 = getelementptr inbounds ptr, ptr %39, i64 %41
  %43 = load ptr, ptr %42, align 8, !tbaa !204
  %44 = load i32, ptr %11, align 4, !tbaa !10
  %45 = sext i32 %44 to i64
  %46 = getelementptr inbounds %"class.cv::(anonymous namespace)::ufixedpoint16", ptr %43, i64 %45
  call void @_ZNK2cv12_GLOBAL__N_113ufixedpoint16mlERKS1_(ptr dead_on_unwind writable sret(%"class.cv::(anonymous namespace)::ufixedpoint32") align 4 %15, ptr noundef nonnull align 2 dereferenceable(2) %38, ptr noundef nonnull align 2 dereferenceable(2) %46)
  call void @_ZNK2cv12_GLOBAL__N_113ufixedpoint32plERKS1_(ptr dead_on_unwind writable sret(%"class.cv::(anonymous namespace)::ufixedpoint32") align 4 %14, ptr noundef nonnull align 4 dereferenceable(4) %12, ptr noundef nonnull align 4 dereferenceable(4) %15)
  %47 = call noundef nonnull align 4 dereferenceable(4) ptr @_ZN2cv12_GLOBAL__N_113ufixedpoint32aSERKS1_(ptr noundef nonnull align 4 dereferenceable(4) %12, ptr noundef nonnull align 4 dereferenceable(4) %14)
  call void @llvm.lifetime.end.p0(i64 4, ptr %15) #3
  call void @llvm.lifetime.end.p0(i64 4, ptr %14) #3
  br label %48

48:                                               ; preds = %34
  %49 = load i32, ptr %13, align 4, !tbaa !10
  %50 = add nsw i32 %49, 1
  store i32 %50, ptr %13, align 4, !tbaa !10
  br label %29, !llvm.loop !319

51:                                               ; preds = %33
  %52 = call noundef zeroext i8 @_ZNK2cv12_GLOBAL__N_113ufixedpoint32cvhEv(ptr noundef nonnull align 4 dereferenceable(4) %12)
  %53 = load ptr, ptr %9, align 8, !tbaa !82
  %54 = load i32, ptr %11, align 4, !tbaa !10
  %55 = sext i32 %54 to i64
  %56 = getelementptr inbounds i8, ptr %53, i64 %55
  store i8 %52, ptr %56, align 1, !tbaa !42
  call void @llvm.lifetime.end.p0(i64 4, ptr %12) #3
  br label %57

57:                                               ; preds = %51
  %58 = load i32, ptr %11, align 4, !tbaa !10
  %59 = add nsw i32 %58, 1
  store i32 %59, ptr %11, align 4, !tbaa !10
  br label %16, !llvm.loop !320

60:                                               ; preds = %16
  call void @llvm.lifetime.end.p0(i64 4, ptr %11) #3
  ret void
}