; Function Attrs: mustprogress nofree norecurse nosync nounwind memory(read, argmem: readwrite, inaccessiblemem: none) uwtable
define internal void @_ZN2cv12cpu_baseline12_GLOBAL__N_120vlineSmoothONa_yzy_aIhNS_12_GLOBAL__N_113ufixedpoint16EEEvPKPKT0_S7_iPT_i(ptr noundef readonly captures(none) %0, ptr noundef readonly captures(none) %1, i32 noundef %2, ptr noundef writeonly captures(none) %3, i32 noundef %4) #17 {
  %6 = icmp sgt i32 %4, 0
  br i1 %6, label %.lr.ph23, label %._crit_edge24

.lr.ph23:                                         ; preds = %5
  %7 = icmp sgt i32 %2, 1
  %wide.trip.count35 = zext nneg i32 %4 to i64
  br i1 %7, label %.lr.ph.us.preheader, label %.lr.ph23.split

.lr.ph.us.preheader:                              ; preds = %.lr.ph23
  %wide.trip.count30 = zext nneg i32 %2 to i64
  br label %.lr.ph.us

.lr.ph.us:                                        ; preds = %.lr.ph.us.preheader, %._crit_edge.us
  %indvars.iv32 = phi i64 [ 0, %.lr.ph.us.preheader ], [ %indvars.iv.next33, %._crit_edge.us ]
  %8 = load ptr, ptr %0, align 8, !tbaa !901
  %9 = getelementptr inbounds nuw %"class.cv::(anonymous namespace)::ufixedpoint16", ptr %8, i64 %indvars.iv32
  %10 = load i16, ptr %1, align 2, !tbaa !41, !noalias !935
  %11 = zext i16 %10 to i32
  %12 = load i16, ptr %9, align 2, !tbaa !41, !noalias !935
  %13 = zext i16 %12 to i32
  %14 = mul nuw i32 %13, %11
  br label %15

15:                                               ; preds = %.lr.ph.us, %15
  %indvars.iv27 = phi i64 [ 1, %.lr.ph.us ], [ %indvars.iv.next28, %15 ]
  %.sroa.017.019.us = phi i32 [ %14, %.lr.ph.us ], [ %25, %15 ]
  %16 = getelementptr inbounds nuw %"class.cv::(anonymous namespace)::ufixedpoint16", ptr %1, i64 %indvars.iv27
  %17 = getelementptr inbounds nuw ptr, ptr %0, i64 %indvars.iv27
  %18 = load ptr, ptr %17, align 8, !tbaa !901
  %19 = getelementptr inbounds nuw %"class.cv::(anonymous namespace)::ufixedpoint16", ptr %18, i64 %indvars.iv32
  %20 = load i16, ptr %16, align 2, !tbaa !41, !noalias !938
  %21 = zext i16 %20 to i32
  %22 = load i16, ptr %19, align 2, !tbaa !41, !noalias !938
  %23 = zext i16 %22 to i32
  %24 = mul nuw i32 %23, %21
  %25 = tail call i32 @llvm.uadd.sat.i32(i32 %.sroa.017.019.us, i32 %24)
  %indvars.iv.next28 = add nuw nsw i64 %indvars.iv27, 1
  %exitcond31.not = icmp eq i64 %indvars.iv.next28, %wide.trip.count30
  br i1 %exitcond31.not, label %._crit_edge.us, label %15, !llvm.loop !941

._crit_edge.us:                                   ; preds = %15
  %26 = add i32 %25, 32768
  %27 = lshr i32 %26, 16
  %.sroa.speculated.i.us = tail call i32 @llvm.umin.i32(i32 range(i32 0, 65536) %27, i32 255)
  %28 = trunc nuw i32 %.sroa.speculated.i.us to i8
  %29 = getelementptr inbounds nuw i8, ptr %3, i64 %indvars.iv32
  store i8 %28, ptr %29, align 1, !tbaa !282
  %indvars.iv.next33 = add nuw nsw i64 %indvars.iv32, 1
  %exitcond36.not = icmp eq i64 %indvars.iv.next33, %wide.trip.count35
  br i1 %exitcond36.not, label %._crit_edge24, label %.lr.ph.us, !llvm.loop !942

.lr.ph23.split:                                   ; preds = %.lr.ph23, %.lr.ph23.split
  %indvars.iv = phi i64 [ %indvars.iv.next, %.lr.ph23.split ], [ 0, %.lr.ph23 ]
  %30 = load ptr, ptr %0, align 8, !tbaa !901
  %31 = getelementptr inbounds nuw %"class.cv::(anonymous namespace)::ufixedpoint16", ptr %30, i64 %indvars.iv
  %32 = load i16, ptr %1, align 2, !tbaa !41, !noalias !935
  %33 = zext i16 %32 to i32
  %34 = load i16, ptr %31, align 2, !tbaa !41, !noalias !935
  %35 = zext i16 %34 to i32
  %36 = mul nuw i32 %35, %33
  %37 = add nuw i32 %36, 32768
  %38 = lshr i32 %37, 16
  %.sroa.speculated.i = tail call i32 @llvm.umin.i32(i32 range(i32 0, 65536) %38, i32 255)
  %39 = trunc nuw i32 %.sroa.speculated.i to i8
  %40 = getelementptr inbounds nuw i8, ptr %3, i64 %indvars.iv
  store i8 %39, ptr %40, align 1, !tbaa !282
  %indvars.iv.next = add nuw nsw i64 %indvars.iv, 1
  %exitcond.not = icmp eq i64 %indvars.iv.next, %wide.trip.count35
  br i1 %exitcond.not, label %._crit_edge24, label %.lr.ph23.split, !llvm.loop !942

._crit_edge24:                                    ; preds = %.lr.ph23.split, %._crit_edge.us, %5
  ret void
}